target datalayout = "e-m:e-p270:32:32-p271:32:32-p272:64:64-i64:64-i128:128-f80:128-n8:16:32:64-S128"
target triple = "x86_64-pc-linux-gnu"

%struct.avifIO = type { ptr, ptr, ptr, i64, i32, ptr }
%struct.avifIOMemoryReader = type { %struct.avifIO, %struct.avifROData }
%struct.avifROData = type { ptr, i64 }

; Function Attrs: nounwind uwtable
define internal i32 @avifIOMemoryReaderRead(ptr noundef %0, i32 noundef %1, i64 noundef %2, i64 noundef %3, ptr noundef %4) #0 {
  %6 = alloca i32, align 4
  %7 = alloca ptr, align 8
  %8 = alloca i32, align 4
  %9 = alloca i64, align 8
  %10 = alloca i64, align 8
  %11 = alloca ptr, align 8
  %12 = alloca ptr, align 8
  %13 = alloca i64, align 8
  store ptr %0, ptr %7, align 8
  store i32 %1, ptr %8, align 4
  store i64 %2, ptr %9, align 8
  store i64 %3, ptr %10, align 8
  store ptr %4, ptr %11, align 8
  %14 = load i32, ptr %8, align 4
  %15 = icmp ne i32 %14, 0
  br i1 %15, label %16, label %17

16:                                               ; preds = %5
  store i32 22, ptr %6, align 4
  br label %50

17:                                               ; preds = %5
  %18 = load ptr, ptr %7, align 8
  store ptr %18, ptr %12, align 8
  %19 = load i64, ptr %9, align 8
  %20 = load ptr, ptr %12, align 8
  %21 = getelementptr inbounds nuw %struct.avifIOMemoryReader, ptr %20, i32 0, i32 1
  %22 = getelementptr inbounds nuw %struct.avifROData, ptr %21, i32 0, i32 1
  %23 = load i64, ptr %22, align 8
  %24 = icmp ugt i64 %19, %23
  br i1 %24, label %25, label %26

25:                                               ; preds = %17
  store i32 22, ptr %6, align 4
  br label %50

26:                                               ; preds = %17
  %27 = load ptr, ptr %12, align 8
  %28 = getelementptr inbounds nuw %struct.avifIOMemoryReader, ptr %27, i32 0, i32 1
  %29 = getelementptr inbounds nuw %struct.avifROData, ptr %28, i32 0, i32 1
  %30 = load i64, ptr %29, align 8
  %31 = load i64, ptr %9, align 8
  %32 = sub i64 %30, %31
  store i64 %32, ptr %13, align 8
  %33 = load i64, ptr %10, align 8
  %34 = load i64, ptr %13, align 8
  %35 = icmp ugt i64 %33, %34
  br i1 %35, label %36, label %38

36:                                               ; preds = %26
  %37 = load i64, ptr %13, align 8
  store i64 %37, ptr %10, align 8
  br label %38

38:                                               ; preds = %36, %26
  %39 = load ptr, ptr %12, align 8
  %40 = getelementptr inbounds nuw %struct.avifIOMemoryReader, ptr %39, i32 0, i32 1
  %41 = getelementptr inbounds nuw %struct.avifROData, ptr %40, i32 0, i32 0
  %42 = load ptr, ptr %41, align 8
  %43 = load i64, ptr %9, align 8
  %44 = getelementptr inbounds i8, ptr %42, i64 %43
  %45 = load ptr, ptr %11, align 8
  %46 = getelementptr inbounds nuw %struct.avifROData, ptr %45, i32 0, i32 0
  store ptr %44, ptr %46, align 8
  %47 = load i64, ptr %10, align 8
  %48 = load ptr, ptr %11, align 8
  %49 = getelementptr inbounds nuw %struct.avifROData, ptr %48, i32 0, i32 1
  store i64 %47, ptr %49, align 8
  store i32 0, ptr %6, align 4
  br label %50

50:                                               ; preds = %38, %25, %16
  %51 = load i32, ptr %6, align 4
  ret i32 %51
}