; Function Attrs: mustprogress nofree norecurse nosync nounwind willreturn memory(argmem: readwrite) uwtable
define internal range(i32 0, 23) i32 @avifIOMemoryReaderRead(ptr noundef readonly captures(none) %0, i32 noundef %1, i64 noundef %2, i64 noundef %3, ptr noundef writeonly captures(none) %4) #3 {
  %.not = icmp eq i32 %1, 0
  br i1 %.not, label %6, label %16

6:                                                ; preds = %5
  %7 = getelementptr inbounds nuw i8, ptr %0, i64 56
  %8 = load i64, ptr %7, align 8
  %9 = icmp ugt i64 %2, %8
  br i1 %9, label %16, label %10

10:                                               ; preds = %6
  %11 = getelementptr inbounds nuw i8, ptr %0, i64 48
  %12 = sub nuw i64 %8, %2
  %spec.select = tail call i64 @llvm.umin.i64(i64 %3, i64 %12)
  %13 = load ptr, ptr %11, align 8
  %14 = getelementptr inbounds i8, ptr %13, i64 %2
  store ptr %14, ptr %4, align 8
  %15 = getelementptr inbounds nuw i8, ptr %4, i64 8
  store i64 %spec.select, ptr %15, align 8
  br label %16

16:                                               ; preds = %6, %5, %10
  %.0 = phi i32 [ 0, %10 ], [ 22, %5 ], [ 22, %6 ]
  ret i32 %.0
}